target datalayout = "e-m:e-p270:32:32-p271:32:32-p272:64:64-i64:64-i128:128-f80:128-n8:16:32:64-S128"
target triple = "x86_64-pc-linux-gnu"

%struct.LogicalRepWorker = type { i32, i64, i8, i16, ptr, i32, i32, i32, i32, i8, i64, i8, ptr, i32, i8, i64, i64, i64, i64, i64 }
%struct.Subscription = type { i32, i32, i64, ptr, i32, i8, i8, i8, i8, i8, i8, i8, i8, i8, ptr, ptr, ptr, ptr, ptr }
%struct.WalRcvStreamOptions = type { i8, ptr, i64, %union.anon }
%union.anon = type { %struct.anon.0 }
%struct.anon.0 = type { i32, ptr, i8, ptr, i8, ptr }
%struct.WalReceiverFunctionsType = type { ptr, ptr, ptr, ptr, ptr, ptr, ptr, ptr, ptr, ptr, ptr, ptr, ptr, ptr, ptr, ptr, ptr }

@LogRepWorkerWalRcvConn = dso_local global ptr null, align 8
@MySubscription = dso_local global ptr null, align 8
@MyLogicalRepWorker = external global ptr, align 8
@WalReceiverFunctions = external global ptr, align 8
@.str.16 = private unnamed_addr constant [9 x i8] c"parallel\00", align 1
@.str.17 = private unnamed_addr constant [3 x i8] c"on\00", align 1

; Function Attrs: nounwind uwtable
define dso_local void @set_stream_options(ptr noundef %0, ptr noundef %1, ptr noundef %2) #0 {
  %4 = alloca ptr, align 8
  %5 = alloca ptr, align 8
  %6 = alloca ptr, align 8
  %7 = alloca i32, align 4
  store ptr %0, ptr %4, align 8
  store ptr %1, ptr %5, align 8
  store ptr %2, ptr %6, align 8
  call void @llvm.lifetime.start.p0(i64 4, ptr %7) #12
  %8 = load ptr, ptr %4, align 8
  %9 = getelementptr inbounds nuw %struct.WalRcvStreamOptions, ptr %8, i32 0, i32 0
  store i8 1, ptr %9, align 8
  %10 = load ptr, ptr %6, align 8
  %11 = load i64, ptr %10, align 8
  %12 = load ptr, ptr %4, align 8
  %13 = getelementptr inbounds nuw %struct.WalRcvStreamOptions, ptr %12, i32 0, i32 2
  store i64 %11, ptr %13, align 8
  %14 = load ptr, ptr %5, align 8
  %15 = load ptr, ptr %4, align 8
  %16 = getelementptr inbounds nuw %struct.WalRcvStreamOptions, ptr %15, i32 0, i32 1
  store ptr %14, ptr %16, align 8
  %17 = load ptr, ptr @WalReceiverFunctions, align 8
  %18 = getelementptr inbounds nuw %struct.WalReceiverFunctionsType, ptr %17, i32 0, i32 6
  %19 = load ptr, ptr %18, align 8
  %20 = load ptr, ptr @LogRepWorkerWalRcvConn, align 8
  %21 = call i32 %19(ptr noundef %20)
  store i32 %21, ptr %7, align 4
  %22 = load i32, ptr %7, align 4
  %23 = icmp sge i32 %22, 160000
  br i1 %23, label %24, label %25

24:                                               ; preds = %3
  br label %35

25:                                               ; preds = %3
  %26 = load i32, ptr %7, align 4
  %27 = icmp sge i32 %26, 150000
  br i1 %27, label %28, label %29

28:                                               ; preds = %25
  br label %33

29:                                               ; preds = %25
  %30 = load i32, ptr %7, align 4
  %31 = icmp sge i32 %30, 140000
  %32 = select i1 %31, i32 2, i32 1
  br label %33

33:                                               ; preds = %29, %28
  %34 = phi i32 [ 3, %28 ], [ %32, %29 ]
  br label %35

35:                                               ; preds = %33, %24
  %36 = phi i32 [ 4, %24 ], [ %34, %33 ]
  %37 = load ptr, ptr %4, align 8
  %38 = getelementptr inbounds nuw %struct.WalRcvStreamOptions, ptr %37, i32 0, i32 3
  %39 = getelementptr inbounds nuw %struct.anon.0, ptr %38, i32 0, i32 0
  store i32 %36, ptr %39, align 8
  %40 = load ptr, ptr @MySubscription, align 8
  %41 = getelementptr inbounds nuw %struct.Subscription, ptr %40, i32 0, i32 17
  %42 = load ptr, ptr %41, align 8
  %43 = load ptr, ptr %4, align 8
  %44 = getelementptr inbounds nuw %struct.WalRcvStreamOptions, ptr %43, i32 0, i32 3
  %45 = getelementptr inbounds nuw %struct.anon.0, ptr %44, i32 0, i32 1
  store ptr %42, ptr %45, align 8
  %46 = load ptr, ptr @MySubscription, align 8
  %47 = getelementptr inbounds nuw %struct.Subscription, ptr %46, i32 0, i32 7
  %48 = load i8, ptr %47, align 2, !range !4, !noundef !5
  %49 = trunc i8 %48 to i1
  %50 = load ptr, ptr %4, align 8
  %51 = getelementptr inbounds nuw %struct.WalRcvStreamOptions, ptr %50, i32 0, i32 3
  %52 = getelementptr inbounds nuw %struct.anon.0, ptr %51, i32 0, i32 2
  %53 = zext i1 %49 to i8
  store i8 %53, ptr %52, align 8
  %54 = load i32, ptr %7, align 4
  %55 = icmp sge i32 %54, 160000
  br i1 %55, label %56, label %68

56:                                               ; preds = %35
  %57 = load ptr, ptr @MySubscription, align 8
  %58 = getelementptr inbounds nuw %struct.Subscription, ptr %57, i32 0, i32 8
  %59 = load i8, ptr %58, align 1
  %60 = sext i8 %59 to i32
  %61 = icmp eq i32 %60, 112
  br i1 %61, label %62, label %68

62:                                               ; preds = %56
  %63 = load ptr, ptr %4, align 8
  %64 = getelementptr inbounds nuw %struct.WalRcvStreamOptions, ptr %63, i32 0, i32 3
  %65 = getelementptr inbounds nuw %struct.anon.0, ptr %64, i32 0, i32 3
  store ptr @.str.16, ptr %65, align 8
  %66 = load ptr, ptr @MyLogicalRepWorker, align 8
  %67 = getelementptr inbounds nuw %struct.LogicalRepWorker, ptr %66, i32 0, i32 14
  store i8 1, ptr %67, align 4
  br label %90

68:                                               ; preds = %56, %35
  %69 = load i32, ptr %7, align 4
  %70 = icmp sge i32 %69, 140000
  br i1 %70, label %71, label %83

71:                                               ; preds = %68
  %72 = load ptr, ptr @MySubscription, align 8
  %73 = getelementptr inbounds nuw %struct.Subscription, ptr %72, i32 0, i32 8
  %74 = load i8, ptr %73, align 1
  %75 = sext i8 %74 to i32
  %76 = icmp ne i32 %75, 102
  br i1 %76, label %77, label %83

77:                                               ; preds = %71
  %78 = load ptr, ptr %4, align 8
  %79 = getelementptr inbounds nuw %struct.WalRcvStreamOptions, ptr %78, i32 0, i32 3
  %80 = getelementptr inbounds nuw %struct.anon.0, ptr %79, i32 0, i32 3
  store ptr @.str.17, ptr %80, align 8
  %81 = load ptr, ptr @MyLogicalRepWorker, align 8
  %82 = getelementptr inbounds nuw %struct.LogicalRepWorker, ptr %81, i32 0, i32 14
  store i8 0, ptr %82, align 4
  br label %89

83:                                               ; preds = %71, %68
  %84 = load ptr, ptr %4, align 8
  %85 = getelementptr inbounds nuw %struct.WalRcvStreamOptions, ptr %84, i32 0, i32 3
  %86 = getelementptr inbounds nuw %struct.anon.0, ptr %85, i32 0, i32 3
  store ptr null, ptr %86, align 8
  %87 = load ptr, ptr @MyLogicalRepWorker, align 8
  %88 = getelementptr inbounds nuw %struct.LogicalRepWorker, ptr %87, i32 0, i32 14
  store i8 0, ptr %88, align 4
  br label %89

89:                                               ; preds = %83, %77
  br label %90

90:                                               ; preds = %89, %62
  %91 = load ptr, ptr %4, align 8
  %92 = getelementptr inbounds nuw %struct.WalRcvStreamOptions, ptr %91, i32 0, i32 3
  %93 = getelementptr inbounds nuw %struct.anon.0, ptr %92, i32 0, i32 4
  store i8 0, ptr %93, align 8
  %94 = load ptr, ptr @MySubscription, align 8
  %95 = getelementptr inbounds nuw %struct.Subscription, ptr %94, i32 0, i32 18
  %96 = load ptr, ptr %95, align 8
  %97 = call ptr @pstrdup(ptr noundef %96)
  %98 = load ptr, ptr %4, align 8
  %99 = getelementptr inbounds nuw %struct.WalRcvStreamOptions, ptr %98, i32 0, i32 3
  %100 = getelementptr inbounds nuw %struct.anon.0, ptr %99, i32 0, i32 5
  store ptr %97, ptr %100, align 8
  call void @llvm.lifetime.end.p0(i64 4, ptr %7) #12
  ret void
}