; Function Attrs: nounwind uwtable
define dso_local void @set_stream_options(ptr noundef writeonly captures(none) initializes((0, 1), (8, 28), (32, 41), (48, 57), (64, 72)) %0, ptr noundef %1, ptr noundef readonly captures(none) %2) local_unnamed_addr #0 {
  store i8 1, ptr %0, align 8
  %4 = load i64, ptr %2, align 8
  %5 = getelementptr inbounds nuw i8, ptr %0, i64 16
  store i64 %4, ptr %5, align 8
  %6 = getelementptr inbounds nuw i8, ptr %0, i64 8
  store ptr %1, ptr %6, align 8
  %7 = load ptr, ptr @WalReceiverFunctions, align 8
  %8 = getelementptr inbounds nuw i8, ptr %7, i64 48
  %9 = load ptr, ptr %8, align 8
  %10 = load ptr, ptr @LogRepWorkerWalRcvConn, align 8
  %11 = tail call i32 %9(ptr noundef %10) #17
  %12 = icmp sgt i32 %11, 159999
  %13 = icmp sgt i32 %11, 149999
  %14 = icmp sgt i32 %11, 139999
  %15 = select i1 %14, i32 2, i32 1
  %16 = select i1 %13, i32 3, i32 %15
  %17 = select i1 %12, i32 4, i32 %16
  %18 = getelementptr inbounds nuw i8, ptr %0, i64 24
  store i32 %17, ptr %18, align 8
  %19 = load ptr, ptr @MySubscription, align 8
  %20 = getelementptr inbounds nuw i8, ptr %19, i64 64
  %21 = load ptr, ptr %20, align 8
  %22 = getelementptr inbounds nuw i8, ptr %0, i64 32
  store ptr %21, ptr %22, align 8
  %23 = getelementptr inbounds nuw i8, ptr %19, i64 30
  %24 = load i8, ptr %23, align 2, !range !4, !noundef !5
  %25 = getelementptr inbounds nuw i8, ptr %0, i64 40
  store i8 %24, ptr %25, align 8
  br i1 %12, label %26, label %30

26:                                               ; preds = %3
  %27 = getelementptr inbounds nuw i8, ptr %19, i64 31
  %28 = load i8, ptr %27, align 1
  %29 = icmp eq i8 %28, 112
  br i1 %29, label %33, label %.thread

30:                                               ; preds = %3
  br i1 %14, label %..thread_crit_edge, label %32

..thread_crit_edge:                               ; preds = %30
  %.phi.trans.insert = getelementptr inbounds nuw i8, ptr %19, i64 31
  %.pre = load i8, ptr %.phi.trans.insert, align 1
  br label %.thread

.thread:                                          ; preds = %..thread_crit_edge, %26
  %31 = phi i8 [ %.pre, %..thread_crit_edge ], [ %28, %26 ]
  %.not = icmp eq i8 %31, 102
  br i1 %.not, label %32, label %33

32:                                               ; preds = %.thread, %30
  br label %33

33:                                               ; preds = %.thread, %26, %32
  %.str.17.sink = phi ptr [ null, %32 ], [ @.str.16, %26 ], [ @.str.17, %.thread ]
  %.sink = phi i8 [ 0, %32 ], [ 1, %26 ], [ 0, %.thread ]
  %34 = getelementptr inbounds nuw i8, ptr %0, i64 48
  store ptr %.str.17.sink, ptr %34, align 8
  %35 = load ptr, ptr @MyLogicalRepWorker, align 8
  %36 = getelementptr inbounds nuw i8, ptr %35, i64 84
  store i8 %.sink, ptr %36, align 4
  %37 = getelementptr inbounds nuw i8, ptr %0, i64 56
  store i8 0, ptr %37, align 8
  %38 = getelementptr inbounds nuw i8, ptr %19, i64 72
  %39 = load ptr, ptr %38, align 8
  %40 = tail call ptr @pstrdup(ptr noundef %39) #17
  %41 = getelementptr inbounds nuw i8, ptr %0, i64 64
  store ptr %40, ptr %41, align 8
  ret void
}